target datalayout = "e-m:e-p270:32:32-p271:32:32-p272:64:64-i64:64-i128:128-f80:128-n8:16:32:64-S128"
target triple = "x86_64-pc-linux-gnu"

@proto_register_adb_cs.ett = internal global [2 x ptr] [ptr @ett_adb_cs, ptr @ett_length], align 16
@client_requests = internal global ptr null, align 8
@.str.16 = private unnamed_addr constant [35 x i8] c"Android Debug Bridge Client-Server\00", align 1
@.str.17 = private unnamed_addr constant [7 x i8] c"ADB CS\00", align 1
@.str.18 = private unnamed_addr constant [7 x i8] c"adb_cs\00", align 1
@proto_adb_cs = internal global i32 0, align 4
@adb_cs_handle = internal global ptr null, align 8
@.str.19 = private unnamed_addr constant [8 x i8] c"version\00", align 1
@.str.20 = private unnamed_addr constant [59 x i8] c"ADB CS protocol version is compatible prior to: adb 1.0.31\00", align 1
@.str.21 = private unnamed_addr constant [49 x i8] c"Version of protocol supported by this dissector.\00", align 1
@.str.22 = private unnamed_addr constant [12 x i8] c"server_port\00", align 1
@.str.23 = private unnamed_addr constant [12 x i8] c"Server Port\00", align 1
@server_port = internal global i32 5037, align 4

; Function Attrs: null_pointer_is_valid sspstrong uwtable
define hidden void @proto_register_adb_cs() #0 {
  %1 = alloca ptr, align 8
  %2 = alloca ptr, align 8
  call void @llvm.lifetime.start.p0(i64 8, ptr %1) #6
  call void @llvm.lifetime.start.p0(i64 8, ptr %2) #6
  %3 = call ptr @wmem_epan_scope()
  %4 = call ptr @wmem_file_scope()
  %5 = call noalias ptr @wmem_tree_new_autoreset(ptr noundef %3, ptr noundef %4)
  store ptr %5, ptr @client_requests, align 8
  %6 = call i32 @proto_register_protocol(ptr noundef @.str.16, ptr noundef @.str.17, ptr noundef @.str.18)
  store i32 %6, ptr @proto_adb_cs, align 4
  %7 = load i32, ptr @proto_adb_cs, align 4
  %8 = call ptr @register_dissector(ptr noundef @.str.18, ptr noundef @dissect_adb_cs, i32 noundef %7)
  store ptr %8, ptr @adb_cs_handle, align 8
  %9 = load i32, ptr @proto_adb_cs, align 4
  call void @proto_register_field_array(i32 noundef %9, ptr noundef @proto_register_adb_cs.hf, i32 noundef 7)
  call void @proto_register_subtree_array(ptr noundef @proto_register_adb_cs.ett, i32 noundef 2)
  %10 = load i32, ptr @proto_adb_cs, align 4
  %11 = call ptr @expert_register_protocol(i32 noundef %10)
  store ptr %11, ptr %2, align 8
  %12 = load ptr, ptr %2, align 8
  call void @expert_register_field_array(ptr noundef %12, ptr noundef @proto_register_adb_cs.ei, i32 noundef 1)
  %13 = load i32, ptr @proto_adb_cs, align 4
  %14 = call ptr @prefs_register_protocol(i32 noundef %13, ptr noundef null)
  store ptr %14, ptr %1, align 8
  %15 = load ptr, ptr %1, align 8
  call void @prefs_register_static_text_preference(ptr noundef %15, ptr noundef @.str.19, ptr noundef @.str.20, ptr noundef @.str.21)
  %16 = load ptr, ptr %1, align 8
  call void @prefs_register_uint_preference(ptr noundef %16, ptr noundef @.str.22, ptr noundef @.str.23, ptr noundef @.str.23, i32 noundef 10, ptr noundef @server_port)
  call void @llvm.lifetime.end.p0(i64 8, ptr %2) #6
  call void @llvm.lifetime.end.p0(i64 8, ptr %1) #6
  ret void
}